; ModuleID = 'bench/libcxx/original/optional.ll'
source_filename = "bench/libcxx/original/optional.ll"
target datalayout = "e-m:e-p270:32:32-p271:32:32-p272:64:64-i64:64-i128:128-f80:128-n8:16:32:64-S128"
target triple = "x86_64-pc-linux-gnu"

@.str = private unnamed_addr constant [20 x i8] c"bad_optional_access\00", align 1
@_ZTVSt19bad_optional_access = dso_local unnamed_addr constant { [5 x ptr] } { [5 x ptr] [ptr null, ptr @_ZTISt19bad_optional_access, ptr @_ZNSt19bad_optional_accessD2Ev, ptr @_ZNSt19bad_optional_accessD0Ev, ptr @_ZNKSt19bad_optional_access4whatEv] }, align 8
@_ZTISt19bad_optional_access = dso_local constant { ptr, ptr, ptr } { ptr getelementptr inbounds (ptr, ptr @_ZTVN10__cxxabiv120__si_class_type_infoE, i64 2), ptr @_ZTSSt19bad_optional_access, ptr @_ZTISt9exception }, align 8
@_ZTVN10__cxxabiv120__si_class_type_infoE = external global [0 x ptr]
@_ZTSSt19bad_optional_access = dso_local constant [24 x i8] c"St19bad_optional_access\00", align 1
@_ZTISt9exception = external constant ptr
@_ZTVNSt12experimental19bad_optional_accessE = dso_local unnamed_addr constant { [5 x ptr] } { [5 x ptr] [ptr null, ptr @_ZTINSt12experimental19bad_optional_accessE, ptr @_ZNSt12experimental19bad_optional_accessD2Ev, ptr @_ZNSt12experimental19bad_optional_accessD0Ev, ptr @_ZNKSt11logic_error4whatEv] }, align 8
@_ZTINSt12experimental19bad_optional_accessE = dso_local constant { ptr, ptr, ptr } { ptr getelementptr inbounds (ptr, ptr @_ZTVN10__cxxabiv120__si_class_type_infoE, i64 2), ptr @_ZTSNSt12experimental19bad_optional_accessE, ptr @_ZTISt11logic_error }, align 8
@_ZTSNSt12experimental19bad_optional_accessE = dso_local constant [40 x i8] c"NSt12experimental19bad_optional_accessE\00", align 1
@_ZTISt11logic_error = external constant ptr

@_ZNSt19bad_optional_accessD1Ev = dso_local unnamed_addr alias void (ptr), ptr @_ZNSt19bad_optional_accessD2Ev
@_ZNSt12experimental19bad_optional_accessD1Ev = dso_local unnamed_addr alias void (ptr), ptr @_ZNSt12experimental19bad_optional_accessD2Ev

; Function Attrs: nounwind
declare void @_ZNSt9exceptionD2Ev(ptr noundef nonnull align 8 dereferenceable(8)) unnamed_addr #0

; Function Attrs: mustprogress nounwind uwtable
define dso_local void @_ZNSt19bad_optional_accessD2Ev(ptr noundef nonnull align 8 dereferenceable(8) %0) unnamed_addr #1 align 2 {
  tail call void @_ZNSt9exceptionD2Ev(ptr noundef nonnull align 8 dereferenceable(8) %0) #4
  ret void
}

; Function Attrs: mustprogress nounwind uwtable
define dso_local void @_ZNSt19bad_optional_accessD0Ev(ptr noundef nonnull align 8 dereferenceable(8) %0) unnamed_addr #1 align 2 {
  tail call void @_ZNSt9exceptionD2Ev(ptr noundef nonnull align 8 dereferenceable(8) %0) #4
  tail call void @_ZdlPvm(ptr noundef nonnull %0, i64 noundef 8) #5
  ret void
}

; Function Attrs: nobuiltin nounwind
declare void @_ZdlPvm(ptr noundef, i64 noundef) local_unnamed_addr #2

; Function Attrs: mustprogress nofree norecurse nosync nounwind willreturn memory(none) uwtable
define dso_local noundef nonnull ptr @_ZNKSt19bad_optional_access4whatEv(ptr nonnull readnone align 8 captures(none) %0) unnamed_addr #3 align 2 {
  ret ptr @.str
}

; Function Attrs: nounwind
declare void @_ZNSt11logic_errorD2Ev(ptr noundef nonnull align 8 dereferenceable(16)) unnamed_addr #0

; Function Attrs: mustprogress nounwind uwtable
define dso_local void @_ZNSt12experimental19bad_optional_accessD2Ev(ptr noundef nonnull align 8 dereferenceable(16) %0) unnamed_addr #1 align 2 {
  tail call void @_ZNSt11logic_errorD2Ev(ptr noundef nonnull align 8 dereferenceable(16) %0) #4
  ret void
}

; Function Attrs: mustprogress nounwind uwtable
define dso_local void @_ZNSt12experimental19bad_optional_accessD0Ev(ptr noundef nonnull align 8 dereferenceable(16) %0) unnamed_addr #1 align 2 {
  tail call void @_ZNSt11logic_errorD2Ev(ptr noundef nonnull align 8 dereferenceable(16) %0) #4
  tail call void @_ZdlPvm(ptr noundef nonnull %0, i64 noundef 16) #5
  ret void
}

; Function Attrs: nounwind
declare noundef ptr @_ZNKSt11logic_error4whatEv(ptr noundef nonnull align 8 dereferenceable(16)) unnamed_addr #0


!llvm.linker.options = !{}
!llvm.module.flags = !{!0, !1, !2, !3}

!0 = !{i32 1, !"wchar_size", i32 4}
!1 = !{i32 8, !"PIC Level", i32 2}
!2 = !{i32 7, !"PIE Level", i32 2}
!3 = !{i32 7, !"uwtable", i32 2}
